target datalayout = "e-m:e-p270:32:32-p271:32:32-p272:64:64-i64:64-i128:128-f80:128-n8:16:32:64-S128"
target triple = "x86_64-pc-linux-gnu"

%"struct.pkpy::StrName" = type { i16 }
%"struct.pkpy::Type" = type { i16 }
%"struct.pkpy::PyObject" = type { ptr, i8, i8, %"struct.pkpy::Type", ptr }
%class.anon.116 = type { i8 }
%"struct.pkpy::SmallNameDict" = type { i8, i16, [8 x %"struct.pkpy::StrName"], [8 x ptr] }
%"struct.pkpy::NameDictImpl" = type { %union.anon }
%union.anon = type { %"struct.pkpy::SmallNameDict" }
%"class.pkpy::VM" = type <{ ptr, ptr, %"struct.pkpy::ManagedHeap", %"struct.pkpy::ValueStack", %"struct.pkpy::CallStack", %"class.std::vector.0", %"struct.pkpy::NameDictImpl", %"class.std::map", %struct.anon, ptr, ptr, ptr, ptr, ptr, ptr, ptr, ptr, %"class.std::map.13", %"class.std::set", %"struct.pkpy::ImportContext", ptr, ptr, ptr, %"class.std::map.37", %"class.std::map.45", %"class.std::shared_ptr", ptr, ptr, ptr, ptr, i8, [7 x i8] }>
%"struct.pkpy::ManagedHeap" = type <{ %"class.std::vector", %"class.std::vector", ptr, ptr, ptr, i32, i32, i32, [4 x i8] }>
%"class.std::vector" = type { %"struct.std::_Vector_base" }
%"struct.std::_Vector_base" = type { %"struct.std::_Vector_base<pkpy::PyObject *, std::allocator<pkpy::PyObject *>>::_Vector_impl" }
%"struct.std::_Vector_base<pkpy::PyObject *, std::allocator<pkpy::PyObject *>>::_Vector_impl" = type { %"struct.std::_Vector_base<pkpy::PyObject *, std::allocator<pkpy::PyObject *>>::_Vector_impl_data" }
%"struct.std::_Vector_base<pkpy::PyObject *, std::allocator<pkpy::PyObject *>>::_Vector_impl_data" = type { ptr, ptr, ptr }
%"struct.pkpy::ValueStack" = type { [33024 x ptr], ptr, ptr }
%"struct.pkpy::CallStack" = type <{ ptr, i32, [4 x i8] }>
%"class.std::vector.0" = type { %"struct.std::_Vector_base.1" }
%"struct.std::_Vector_base.1" = type { %"struct.std::_Vector_base<pkpy::PyTypeInfo, std::allocator<pkpy::PyTypeInfo>>::_Vector_impl" }
%"struct.std::_Vector_base<pkpy::PyTypeInfo, std::allocator<pkpy::PyTypeInfo>>::_Vector_impl" = type { %"struct.std::_Vector_base<pkpy::PyTypeInfo, std::allocator<pkpy::PyTypeInfo>>::_Vector_impl_data" }
%"struct.std::_Vector_base<pkpy::PyTypeInfo, std::allocator<pkpy::PyTypeInfo>>::_Vector_impl_data" = type { ptr, ptr, ptr }
%"class.std::map" = type { %"class.std::_Rb_tree" }
%"class.std::_Rb_tree" = type { %"struct.std::_Rb_tree<pkpy::StrName, std::pair<const pkpy::StrName, pkpy::Str>, std::_Select1st<std::pair<const pkpy::StrName, pkpy::Str>>, std::less<pkpy::StrName>>::_Rb_tree_impl" }
%"struct.std::_Rb_tree<pkpy::StrName, std::pair<const pkpy::StrName, pkpy::Str>, std::_Select1st<std::pair<const pkpy::StrName, pkpy::Str>>, std::less<pkpy::StrName>>::_Rb_tree_impl" = type { %"struct.std::_Rb_tree_key_compare", %"struct.std::_Rb_tree_header" }
%"struct.std::_Rb_tree_key_compare" = type { %"struct.std::less" }
%"struct.std::less" = type { i8 }
%"struct.std::_Rb_tree_header" = type { %"struct.std::_Rb_tree_node_base", i64 }
%"struct.std::_Rb_tree_node_base" = type { i32, ptr, ptr, ptr }
%struct.anon = type { ptr, %"class.pkpy::stack_no_copy" }
%"class.pkpy::stack_no_copy" = type { %"class.pkpy::stack" }
%"class.pkpy::stack" = type { %"class.std::vector.8" }
%"class.std::vector.8" = type { %"struct.std::_Vector_base.9" }
%"struct.std::_Vector_base.9" = type { %"struct.std::_Vector_base<pkpy::ArgsView, std::allocator<pkpy::ArgsView>>::_Vector_impl" }
%"struct.std::_Vector_base<pkpy::ArgsView, std::allocator<pkpy::ArgsView>>::_Vector_impl" = type { %"struct.std::_Vector_base<pkpy::ArgsView, std::allocator<pkpy::ArgsView>>::_Vector_impl_data" }
%"struct.std::_Vector_base<pkpy::ArgsView, std::allocator<pkpy::ArgsView>>::_Vector_impl_data" = type { ptr, ptr, ptr }
%"class.std::map.13" = type { %"class.std::_Rb_tree.14" }
%"class.std::_Rb_tree.14" = type { %"struct.std::_Rb_tree<const std::type_index, std::pair<const std::type_index, pkpy::Type>, std::_Select1st<std::pair<const std::type_index, pkpy::Type>>, std::less<const std::type_index>>::_Rb_tree_impl" }
%"struct.std::_Rb_tree<const std::type_index, std::pair<const std::type_index, pkpy::Type>, std::_Select1st<std::pair<const std::type_index, pkpy::Type>>, std::less<const std::type_index>>::_Rb_tree_impl" = type { %"struct.std::_Rb_tree_key_compare.18", %"struct.std::_Rb_tree_header" }
%"struct.std::_Rb_tree_key_compare.18" = type { %"struct.std::less.19" }
%"struct.std::less.19" = type { i8 }
%"class.std::set" = type { %"class.std::_Rb_tree.21" }
%"class.std::_Rb_tree.21" = type { %"struct.std::_Rb_tree<pkpy::PyObject *, pkpy::PyObject *, std::_Identity<pkpy::PyObject *>, std::less<pkpy::PyObject *>>::_Rb_tree_impl" }
%"struct.std::_Rb_tree<pkpy::PyObject *, pkpy::PyObject *, std::_Identity<pkpy::PyObject *>, std::less<pkpy::PyObject *>>::_Rb_tree_impl" = type { %"struct.std::_Rb_tree_key_compare.25", %"struct.std::_Rb_tree_header" }
%"struct.std::_Rb_tree_key_compare.25" = type { %"struct.std::less.26" }
%"struct.std::less.26" = type { i8 }
%"struct.pkpy::ImportContext" = type { %"class.std::vector.28", %"class.std::vector.33" }
%"class.std::vector.28" = type { %"struct.std::_Vector_base.29" }
%"struct.std::_Vector_base.29" = type { %"struct.std::_Vector_base<pkpy::Str, std::allocator<pkpy::Str>>::_Vector_impl" }
%"struct.std::_Vector_base<pkpy::Str, std::allocator<pkpy::Str>>::_Vector_impl" = type { %"struct.std::_Vector_base<pkpy::Str, std::allocator<pkpy::Str>>::_Vector_impl_data" }
%"struct.std::_Vector_base<pkpy::Str, std::allocator<pkpy::Str>>::_Vector_impl_data" = type { ptr, ptr, ptr }
%"class.std::vector.33" = type { %"struct.std::_Bvector_base" }
%"struct.std::_Bvector_base" = type { %"struct.std::_Bvector_base<std::allocator<bool>>::_Bvector_impl" }
%"struct.std::_Bvector_base<std::allocator<bool>>::_Bvector_impl" = type { %"struct.std::_Bvector_base<std::allocator<bool>>::_Bvector_impl_data" }
%"struct.std::_Bvector_base<std::allocator<bool>>::_Bvector_impl_data" = type { %"struct.std::_Bit_iterator", %"struct.std::_Bit_iterator", ptr }
%"struct.std::_Bit_iterator" = type { %"struct.std::_Bit_iterator_base.base", [4 x i8] }
%"struct.std::_Bit_iterator_base.base" = type <{ ptr, i32 }>
%"class.std::map.37" = type { %"class.std::_Rb_tree.38" }
%"class.std::_Rb_tree.38" = type { %"struct.std::_Rb_tree<std::basic_string_view<char>, std::pair<const std::basic_string_view<char>, std::shared_ptr<pkpy::CodeObject>>, std::_Select1st<std::pair<const std::basic_string_view<char>, std::shared_ptr<pkpy::CodeObject>>>, std::less<std::basic_string_view<char>>>::_Rb_tree_impl" }
%"struct.std::_Rb_tree<std::basic_string_view<char>, std::pair<const std::basic_string_view<char>, std::shared_ptr<pkpy::CodeObject>>, std::_Select1st<std::pair<const std::basic_string_view<char>, std::shared_ptr<pkpy::CodeObject>>>, std::less<std::basic_string_view<char>>>::_Rb_tree_impl" = type { %"struct.std::_Rb_tree_key_compare.42", %"struct.std::_Rb_tree_header" }
%"struct.std::_Rb_tree_key_compare.42" = type { %"struct.std::less.43" }
%"struct.std::less.43" = type { i8 }
%"class.std::map.45" = type { %"class.std::_Rb_tree.46" }
%"class.std::_Rb_tree.46" = type { %"struct.std::_Rb_tree<std::basic_string_view<char>, std::pair<const std::basic_string_view<char>, pkpy::PyObject *>, std::_Select1st<std::pair<const std::basic_string_view<char>, pkpy::PyObject *>>, std::less<std::basic_string_view<char>>>::_Rb_tree_impl" }
%"struct.std::_Rb_tree<std::basic_string_view<char>, std::pair<const std::basic_string_view<char>, pkpy::PyObject *>, std::_Select1st<std::pair<const std::basic_string_view<char>, pkpy::PyObject *>>, std::less<std::basic_string_view<char>>>::_Rb_tree_impl" = type { %"struct.std::_Rb_tree_key_compare.42", %"struct.std::_Rb_tree_header" }
%"class.std::shared_ptr" = type { %"class.std::__shared_ptr" }
%"class.std::__shared_ptr" = type { ptr, %"class.std::__shared_count" }
%"class.std::__shared_count" = type { ptr }
%"struct.pkpy::ArgsView" = type { ptr, ptr }
%"struct.pkpy::Py_.390" = type { %"struct.pkpy::PyObject", %"struct.pkpy::Struct" }
%"struct.pkpy::Struct" = type <{ [24 x i8], ptr, i32, [4 x i8] }>

@_ZN4pkpy2VM6tp_intE = linkonce_odr constant %"struct.pkpy::Type" { i16 2 }, comdat, align 2
@__const._ZN4pkpy18_py_cast__internalIRNS_6StructELb0EEET_PNS_2VMEPNS_8PyObjectE.const_type = private unnamed_addr constant %"struct.pkpy::Type" { i16 -1 }, align 2

; Function Attrs: mustprogress uwtable
define linkonce_odr noundef nonnull align 8 dereferenceable(36) ptr @_ZN4pkpy18_py_cast__internalIRNS_6StructELb0EEET_PNS_2VMEPNS_8PyObjectE(ptr noundef %0, ptr noundef %1) #4 comdat {
  %3 = alloca ptr, align 8
  %4 = alloca ptr, align 8
  %5 = alloca %"struct.pkpy::Type", align 2
  %6 = alloca %"struct.pkpy::Type", align 2
  store ptr %0, ptr %3, align 8
  store ptr %1, ptr %4, align 8
  call void @llvm.memcpy.p0.p0.i64(ptr align 2 %5, ptr align 2 @__const._ZN4pkpy18_py_cast__internalIRNS_6StructELb0EEET_PNS_2VMEPNS_8PyObjectE.const_type, i64 2, i1 false)
  %7 = load ptr, ptr %3, align 8
  %8 = call i16 @_ZN4pkpy2VM28_find_type_in_cxx_typeid_mapINS_6StructEEENS_4TypeEv(ptr noundef nonnull align 8 dereferenceable(264913) %7)
  %9 = getelementptr inbounds %"struct.pkpy::Type", ptr %6, i32 0, i32 0
  store i16 %8, ptr %9, align 2
  %10 = load ptr, ptr %4, align 8
  %11 = getelementptr inbounds %"struct.pkpy::Py_.390", ptr %10, i32 0, i32 1
  ret ptr %11
}

; Function Attrs: mustprogress uwtable
define linkonce_odr noundef ptr @_ZN4pkpy6py_varIRyEEPNS_8PyObjectEPNS_2VMEOT_(ptr noundef %0, ptr noundef nonnull align 8 dereferenceable(8) %1) #4 comdat {
  %3 = alloca ptr, align 8
  %4 = alloca ptr, align 8
  %5 = alloca ptr, align 8
  %6 = alloca i64, align 8
  %7 = alloca %"struct.pkpy::Type", align 2
  store ptr %0, ptr %4, align 8
  store ptr %1, ptr %5, align 8
  %8 = load ptr, ptr %5, align 8
  %9 = load i64, ptr %8, align 8
  store i64 %9, ptr %6, align 8
  %10 = load i64, ptr %6, align 8
  %11 = icmp sge i64 %10, 0
  br i1 %11, label %12, label %21

12:                                               ; preds = %2
  %13 = load i64, ptr %6, align 8
  %14 = icmp sle i64 %13, 1152921504606846975
  br i1 %14, label %15, label %21

15:                                               ; preds = %12
  %16 = load i64, ptr %6, align 8
  %17 = shl i64 %16, 2
  %18 = or i64 %17, 2
  store i64 %18, ptr %6, align 8
  %19 = load i64, ptr %6, align 8
  %20 = inttoptr i64 %19 to ptr
  store ptr %20, ptr %3, align 8
  br label %27

21:                                               ; preds = %12, %2
  %22 = load ptr, ptr %4, align 8
  %23 = getelementptr inbounds %"class.pkpy::VM", ptr %22, i32 0, i32 2
  call void @llvm.memcpy.p0.p0.i64(ptr align 2 %7, ptr align 2 @_ZN4pkpy2VM6tp_intE, i64 2, i1 false)
  %24 = getelementptr inbounds %"struct.pkpy::Type", ptr %7, i32 0, i32 0
  %25 = load i16, ptr %24, align 2
  %26 = call noundef ptr @_ZN4pkpy11ManagedHeap5gcnewIlJRlEEEPNS_8PyObjectENS_4TypeEDpOT0_(ptr noundef nonnull align 8 dereferenceable(84) %23, i16 %25, ptr noundef nonnull align 8 dereferenceable(8) %6)
  store ptr %26, ptr %3, align 8
  br label %27

27:                                               ; preds = %21, %15
  %28 = load ptr, ptr %3, align 8
  ret ptr %28
}

; Function Attrs: mustprogress uwtable
define linkonce_odr noundef i64 @_ZN4pkpy7py_castIlEET_PNS_2VMEPNS_8PyObjectE(ptr noundef %0, ptr noundef %1) #4 comdat {
  %3 = alloca ptr, align 8
  %4 = alloca ptr, align 8
  store ptr %0, ptr %3, align 8
  store ptr %1, ptr %4, align 8
  %5 = load ptr, ptr %3, align 8
  %6 = load ptr, ptr %4, align 8
  %7 = call noundef i64 @_ZN4pkpy18_py_cast__internalIlLb1EEET_PNS_2VMEPNS_8PyObjectE(ptr noundef %5, ptr noundef %6)
  ret i64 %7
}

; Function Attrs: mustprogress uwtable
define linkonce_odr noundef nonnull align 8 dereferenceable(36) ptr @_ZN4pkpy8_py_castIRNS_6StructEEET_PNS_2VMEPNS_8PyObjectE(ptr noundef %0, ptr noundef %1) #4 comdat {
  %3 = alloca ptr, align 8
  %4 = alloca ptr, align 8
  store ptr %0, ptr %3, align 8
  store ptr %1, ptr %4, align 8
  %5 = load ptr, ptr %3, align 8
  %6 = load ptr, ptr %4, align 8
  %7 = call noundef nonnull align 8 dereferenceable(36) ptr @_ZN4pkpy18_py_cast__internalIRNS_6StructELb0EEET_PNS_2VMEPNS_8PyObjectE(ptr noundef %5, ptr noundef %6)
  ret ptr %7
}

; Function Attrs: mustprogress nounwind uwtable
define linkonce_odr noundef ptr @_ZNK4pkpy8ArgsViewixEi(ptr noundef nonnull align 8 dereferenceable(16) %0, i32 noundef %1) #6 comdat align 2 {
  %3 = alloca ptr, align 8
  %4 = alloca i32, align 4
  store ptr %0, ptr %3, align 8
  store i32 %1, ptr %4, align 4
  %5 = load ptr, ptr %3, align 8
  %6 = getelementptr inbounds %"struct.pkpy::ArgsView", ptr %5, i32 0, i32 0
  %7 = load ptr, ptr %6, align 8
  %8 = load i32, ptr %4, align 4
  %9 = sext i32 %8 to i64
  %10 = getelementptr inbounds ptr, ptr %7, i64 %9
  %11 = load ptr, ptr %10, align 8
  ret ptr %11
}

; Function Attrs: mustprogress uwtable
define internal noundef ptr @"_ZZN4pkpy6Struct9_registerEPNS_2VMEPNS_8PyObjectES4_ENK4$_26clES2_NS_8ArgsViewE"(ptr noundef nonnull align 1 dereferenceable(1) %0, ptr noundef %1, ptr %2, ptr %3) #4 align 2 {
  %5 = alloca %"struct.pkpy::ArgsView", align 8
  %6 = alloca ptr, align 8
  %7 = alloca ptr, align 8
  %8 = alloca ptr, align 8
  %9 = alloca i64, align 8
  %10 = alloca ptr, align 8
  %11 = getelementptr inbounds { ptr, ptr }, ptr %5, i32 0, i32 0
  store ptr %2, ptr %11, align 8
  %12 = getelementptr inbounds { ptr, ptr }, ptr %5, i32 0, i32 1
  store ptr %3, ptr %12, align 8
  store ptr %0, ptr %6, align 8
  store ptr %1, ptr %7, align 8
  %13 = load ptr, ptr %7, align 8
  %14 = call noundef ptr @_ZNK4pkpy8ArgsViewixEi(ptr noundef nonnull align 8 dereferenceable(16) %5, i32 noundef 0)
  %15 = call noundef nonnull align 8 dereferenceable(36) ptr @_ZN4pkpy8_py_castIRNS_6StructEEET_PNS_2VMEPNS_8PyObjectE(ptr noundef %13, ptr noundef %14)
  store ptr %15, ptr %8, align 8
  %16 = load ptr, ptr %7, align 8
  %17 = call noundef ptr @_ZNK4pkpy8ArgsViewixEi(ptr noundef nonnull align 8 dereferenceable(16) %5, i32 noundef 1)
  %18 = call noundef i64 @_ZN4pkpy7py_castIlEET_PNS_2VMEPNS_8PyObjectE(ptr noundef %16, ptr noundef %17)
  store i64 %18, ptr %9, align 8
  %19 = load ptr, ptr %8, align 8
  %20 = getelementptr inbounds %"struct.pkpy::Struct", ptr %19, i32 0, i32 1
  %21 = load ptr, ptr %20, align 8
  %22 = load i64, ptr %9, align 8
  %23 = getelementptr inbounds i8, ptr %21, i64 %22
  store ptr %23, ptr %10, align 8
  %24 = load ptr, ptr %7, align 8
  %25 = load ptr, ptr %10, align 8
  %26 = call noundef ptr @_ZN4pkpy6py_varIRyEEPNS_8PyObjectEPNS_2VMEOT_(ptr noundef %24, ptr noundef nonnull align 8 dereferenceable(8) %25)
  ret ptr %26
}

; Function Attrs: mustprogress uwtable
define internal noundef ptr @"_ZZN4pkpy6Struct9_registerEPNS_2VMEPNS_8PyObjectES4_EN4$_268__invokeES2_NS_8ArgsViewE"(ptr noundef %0, ptr %1, ptr %2) #4 align 2 {
  %4 = alloca %"struct.pkpy::ArgsView", align 8
  %5 = alloca ptr, align 8
  %6 = alloca %class.anon.116, align 1
  %7 = getelementptr inbounds { ptr, ptr }, ptr %4, i32 0, i32 0
  store ptr %1, ptr %7, align 8
  %8 = getelementptr inbounds { ptr, ptr }, ptr %4, i32 0, i32 1
  store ptr %2, ptr %8, align 8
  store ptr %0, ptr %5, align 8
  %9 = load ptr, ptr %5, align 8
  %10 = getelementptr inbounds { ptr, ptr }, ptr %4, i32 0, i32 0
  %11 = load ptr, ptr %10, align 8
  %12 = getelementptr inbounds { ptr, ptr }, ptr %4, i32 0, i32 1
  %13 = load ptr, ptr %12, align 8
  %14 = call noundef ptr @"_ZZN4pkpy6Struct9_registerEPNS_2VMEPNS_8PyObjectES4_ENK4$_26clES2_NS_8ArgsViewE"(ptr noundef nonnull align 1 dereferenceable(1) %6, ptr noundef %9, ptr %11, ptr %13)
  ret ptr %14
}